; Function Attrs: mustprogress uwtable
define void @_ZN19OpenColorIO_v2_5dev5Baker13setInputSpaceEPKc(ptr noundef nonnull readonly align 8 captures(none) dereferenceable(8) %0, ptr noundef %1) local_unnamed_addr #3 align 2 {
  %3 = load ptr, ptr %0, align 8, !tbaa !22
  %4 = getelementptr inbounds nuw i8, ptr %3, i64 168
  %5 = getelementptr inbounds nuw i8, ptr %3, i64 176
  %6 = load i64, ptr %5, align 8, !tbaa !28
  %7 = tail call noundef i64 @strlen(ptr noundef nonnull dereferenceable(1) %1) #28
  %8 = tail call noundef nonnull align 8 dereferenceable(32) ptr @_ZNSt7__cxx1112basic_stringIcSt11char_traitsIcESaIcEE10_M_replaceEmmPKcm(ptr noundef nonnull align 8 dereferenceable(32) %4, i64 noundef 0, i64 noundef %6, ptr noundef nonnull %1, i64 noundef %7)
  ret void
}